; Function Attrs: mustprogress nofree norecurse nosync nounwind willreturn memory(read, argmem: readwrite, inaccessiblemem: none) uwtable
define hidden noundef zeroext i16 @_ZN6Assimp11XFileParser11ReadBinWordEv(ptr nocapture noundef nonnull align 8 dereferenceable(56) %this) local_unnamed_addr #13 align 2 {
entry:
  %mP = getelementptr inbounds i8, ptr %this, i64 24
  %0 = load ptr, ptr %mP, align 8
  %1 = load i16, ptr %0, align 1
  %add.ptr = getelementptr inbounds i8, ptr %0, i64 2
  store ptr %add.ptr, ptr %mP, align 8
  ret i16 %1
}